target datalayout = "e-m:e-p270:32:32-p271:32:32-p272:64:64-i64:64-i128:128-f80:128-n8:16:32:64-S128"
target triple = "x86_64-pc-linux-gnu"

%"class.cv::ximgproc::segmentation::PointSet" = type { i32, ptr }
%"class.cv::ximgproc::segmentation::PointSetElement" = type { i32, i32 }

; Function Attrs: inlinehint mustprogress nounwind uwtable
define linkonce_odr void @_ZSt4swapIiENSt9enable_ifIXsr6__and_ISt6__not_ISt15__is_tuple_likeIT_EESt21is_move_constructibleIS3_ESt18is_move_assignableIS3_EEE5valueEvE4typeERS3_SC_(ptr noundef nonnull align 4 dereferenceable(4) %0, ptr noundef nonnull align 4 dereferenceable(4) %1) #7 comdat {
  %3 = alloca ptr, align 8
  %4 = alloca ptr, align 8
  %5 = alloca i32, align 4
  store ptr %0, ptr %3, align 8, !tbaa !34
  store ptr %1, ptr %4, align 8, !tbaa !34
  call void @llvm.lifetime.start.p0(i64 4, ptr %5) #3
  %6 = load ptr, ptr %3, align 8, !tbaa !34
  %7 = load i32, ptr %6, align 4, !tbaa !27
  store i32 %7, ptr %5, align 4, !tbaa !27
  %8 = load ptr, ptr %4, align 8, !tbaa !34
  %9 = load i32, ptr %8, align 4, !tbaa !27
  %10 = load ptr, ptr %3, align 8, !tbaa !34
  store i32 %9, ptr %10, align 4, !tbaa !27
  %11 = load i32, ptr %5, align 4, !tbaa !27
  %12 = load ptr, ptr %4, align 8, !tbaa !34
  store i32 %11, ptr %12, align 4, !tbaa !27
  call void @llvm.lifetime.end.p0(i64 4, ptr %5) #3
  ret void
}

; Function Attrs: mustprogress nounwind uwtable
define hidden void @_ZN2cv8ximgproc12segmentation8PointSet10joinPointsEii(ptr noundef nonnull align 8 dereferenceable(16) %0, i32 noundef %1, i32 noundef %2) #11 align 2 {
  %4 = alloca ptr, align 8
  %5 = alloca i32, align 4
  %6 = alloca i32, align 4
  store ptr %0, ptr %4, align 8, !tbaa !65
  store i32 %1, ptr %5, align 4, !tbaa !27
  store i32 %2, ptr %6, align 4, !tbaa !27
  %7 = load ptr, ptr %4, align 8
  %8 = getelementptr inbounds nuw %"class.cv::ximgproc::segmentation::PointSet", ptr %7, i32 0, i32 1
  %9 = load ptr, ptr %8, align 8, !tbaa !70
  %10 = load i32, ptr %5, align 4, !tbaa !27
  %11 = sext i32 %10 to i64
  %12 = getelementptr inbounds %"class.cv::ximgproc::segmentation::PointSetElement", ptr %9, i64 %11
  %13 = getelementptr inbounds nuw %"class.cv::ximgproc::segmentation::PointSetElement", ptr %12, i32 0, i32 1
  %14 = load i32, ptr %13, align 4, !tbaa !76
  %15 = getelementptr inbounds nuw %"class.cv::ximgproc::segmentation::PointSet", ptr %7, i32 0, i32 1
  %16 = load ptr, ptr %15, align 8, !tbaa !70
  %17 = load i32, ptr %6, align 4, !tbaa !27
  %18 = sext i32 %17 to i64
  %19 = getelementptr inbounds %"class.cv::ximgproc::segmentation::PointSetElement", ptr %16, i64 %18
  %20 = getelementptr inbounds nuw %"class.cv::ximgproc::segmentation::PointSetElement", ptr %19, i32 0, i32 1
  %21 = load i32, ptr %20, align 4, !tbaa !76
  %22 = icmp slt i32 %14, %21
  br i1 %22, label %23, label %24

23:                                               ; preds = %3
  call void @_ZSt4swapIiENSt9enable_ifIXsr6__and_ISt6__not_ISt15__is_tuple_likeIT_EESt21is_move_constructibleIS3_ESt18is_move_assignableIS3_EEE5valueEvE4typeERS3_SC_(ptr noundef nonnull align 4 dereferenceable(4) %5, ptr noundef nonnull align 4 dereferenceable(4) %6) #3
  br label %24

24:                                               ; preds = %23, %3
  %25 = load i32, ptr %5, align 4, !tbaa !27
  %26 = getelementptr inbounds nuw %"class.cv::ximgproc::segmentation::PointSet", ptr %7, i32 0, i32 1
  %27 = load ptr, ptr %26, align 8, !tbaa !70
  %28 = load i32, ptr %6, align 4, !tbaa !27
  %29 = sext i32 %28 to i64
  %30 = getelementptr inbounds %"class.cv::ximgproc::segmentation::PointSetElement", ptr %27, i64 %29
  %31 = getelementptr inbounds nuw %"class.cv::ximgproc::segmentation::PointSetElement", ptr %30, i32 0, i32 0
  store i32 %25, ptr %31, align 4, !tbaa !73
  %32 = getelementptr inbounds nuw %"class.cv::ximgproc::segmentation::PointSet", ptr %7, i32 0, i32 1
  %33 = load ptr, ptr %32, align 8, !tbaa !70
  %34 = load i32, ptr %6, align 4, !tbaa !27
  %35 = sext i32 %34 to i64
  %36 = getelementptr inbounds %"class.cv::ximgproc::segmentation::PointSetElement", ptr %33, i64 %35
  %37 = getelementptr inbounds nuw %"class.cv::ximgproc::segmentation::PointSetElement", ptr %36, i32 0, i32 1
  %38 = load i32, ptr %37, align 4, !tbaa !76
  %39 = getelementptr inbounds nuw %"class.cv::ximgproc::segmentation::PointSet", ptr %7, i32 0, i32 1
  %40 = load ptr, ptr %39, align 8, !tbaa !70
  %41 = load i32, ptr %5, align 4, !tbaa !27
  %42 = sext i32 %41 to i64
  %43 = getelementptr inbounds %"class.cv::ximgproc::segmentation::PointSetElement", ptr %40, i64 %42
  %44 = getelementptr inbounds nuw %"class.cv::ximgproc::segmentation::PointSetElement", ptr %43, i32 0, i32 1
  %45 = load i32, ptr %44, align 4, !tbaa !76
  %46 = add nsw i32 %45, %38
  store i32 %46, ptr %44, align 4, !tbaa !76
  %47 = getelementptr inbounds nuw %"class.cv::ximgproc::segmentation::PointSet", ptr %7, i32 0, i32 0
  %48 = load i32, ptr %47, align 8, !tbaa !77
  %49 = add nsw i32 %48, -1
  store i32 %49, ptr %47, align 8, !tbaa !77
  ret void
}