; Function Attrs: mustprogress nofree norecurse nosync nounwind willreturn memory(readwrite, inaccessiblemem: none) uwtable
define hidden void @_ZN2cv8ximgproc12segmentation8PointSet10joinPointsEii(ptr noundef nonnull align 8 captures(none) dereferenceable(16) %0, i32 noundef %1, i32 noundef %2) local_unnamed_addr #9 align 2 {
  %4 = getelementptr inbounds nuw i8, ptr %0, i64 8
  %5 = load ptr, ptr %4, align 8, !tbaa !54
  %6 = sext i32 %1 to i64
  %7 = getelementptr inbounds %"class.cv::ximgproc::segmentation::PointSetElement", ptr %5, i64 %6, i32 1
  %8 = load i32, ptr %7, align 4, !tbaa !63
  %9 = sext i32 %2 to i64
  %10 = getelementptr inbounds %"class.cv::ximgproc::segmentation::PointSetElement", ptr %5, i64 %9, i32 1
  %11 = load i32, ptr %10, align 4, !tbaa !63
  %12 = icmp slt i32 %8, %11
  %spec.select = select i1 %12, i32 %2, i32 %1
  %spec.select7 = select i1 %12, i32 %1, i32 %2
  %13 = sext i32 %spec.select7 to i64
  %14 = getelementptr inbounds %"class.cv::ximgproc::segmentation::PointSetElement", ptr %5, i64 %13
  store i32 %spec.select, ptr %14, align 4, !tbaa !60
  %15 = getelementptr inbounds %"class.cv::ximgproc::segmentation::PointSetElement", ptr %5, i64 %13, i32 1
  %16 = load i32, ptr %15, align 4, !tbaa !63
  %17 = sext i32 %spec.select to i64
  %18 = getelementptr inbounds %"class.cv::ximgproc::segmentation::PointSetElement", ptr %5, i64 %17, i32 1
  %19 = load i32, ptr %18, align 4, !tbaa !63
  %20 = add nsw i32 %19, %16
  store i32 %20, ptr %18, align 4, !tbaa !63
  %21 = load i32, ptr %0, align 8, !tbaa !51
  %22 = add nsw i32 %21, -1
  store i32 %22, ptr %0, align 8, !tbaa !51
  ret void
}